; Function Attrs: nofree nounwind uwtable
define void @Sbd_ManMergeTest(ptr noundef readonly captures(none) %0) local_unnamed_addr #10 {
  %2 = getelementptr inbounds nuw i8, ptr %0, i64 8
  %3 = load ptr, ptr %2, align 8, !tbaa !75
  %4 = getelementptr inbounds nuw i8, ptr %3, i64 24
  %5 = load i32, ptr %4, align 8, !tbaa !17
  %6 = icmp sgt i32 %5, 0
  br i1 %6, label %.lr.ph, label %._crit_edge

.lr.ph:                                           ; preds = %1, %16
  %7 = phi ptr [ %17, %16 ], [ %3, %1 ]
  %indvars.iv = phi i64 [ %indvars.iv.next, %16 ], [ 0, %1 ]
  %8 = getelementptr i8, ptr %7, i64 32
  %.val = load ptr, ptr %8, align 8, !tbaa !55
  %9 = getelementptr inbounds nuw %struct.Gia_Obj_t_, ptr %.val, i64 %indvars.iv
  %.val7 = load i64, ptr %9, align 4
  %10 = and i64 %.val7, 2147483648
  %.not.i = icmp ne i64 %10, 0
  %11 = and i64 %.val7, 536870911
  %12 = icmp eq i64 %11, 536870911
  %narrow.i.not = or i1 %.not.i, %12
  br i1 %narrow.i.not, label %16, label %13

13:                                               ; preds = %.lr.ph
  %14 = trunc nuw nsw i64 %indvars.iv to i32
  %15 = tail call i32 @Sbd_ManMergeCuts(ptr noundef nonnull %0, i32 noundef %14)
  %.pre = load ptr, ptr %2, align 8, !tbaa !75
  br label %16

16:                                               ; preds = %13, %.lr.ph
  %17 = phi ptr [ %.pre, %13 ], [ %7, %.lr.ph ]
  %indvars.iv.next = add nuw nsw i64 %indvars.iv, 1
  %18 = getelementptr inbounds nuw i8, ptr %17, i64 24
  %19 = load i32, ptr %18, align 8, !tbaa !17
  %20 = sext i32 %19 to i64
  %21 = icmp slt i64 %indvars.iv.next, %20
  br i1 %21, label %.lr.ph, label %._crit_edge, !llvm.loop !254

._crit_edge:                                      ; preds = %16, %1
  %.lcssa9 = phi ptr [ %3, %1 ], [ %17, %16 ]
  %22 = getelementptr inbounds nuw i8, ptr %.lcssa9, i64 72
  %23 = load ptr, ptr %22, align 8, !tbaa !54
  %24 = getelementptr i8, ptr %23, i64 4
  %.val.i = load i32, ptr %24, align 4, !tbaa !48
  %25 = icmp sgt i32 %.val.i, 0
  br i1 %25, label %.lr.ph.i, label %Sbd_ManDelay.exit

.lr.ph.i:                                         ; preds = %._crit_edge
  %26 = getelementptr i8, ptr %.lcssa9, i64 32
  %.val11.i = load ptr, ptr %26, align 8, !tbaa !55
  %27 = getelementptr i8, ptr %23, i64 8
  %.val12.val.i = load ptr, ptr %27, align 8, !tbaa !49
  %28 = getelementptr inbounds nuw i8, ptr %0, i64 24
  %29 = load ptr, ptr %28, align 8, !tbaa !77
  %30 = getelementptr i8, ptr %29, i64 8
  %.val10.i = load ptr, ptr %30, align 8, !tbaa !49
  %wide.trip.count.i = zext nneg i32 %.val.i to i64
  br label %31

31:                                               ; preds = %31, %.lr.ph.i
  %indvars.iv.i = phi i64 [ 0, %.lr.ph.i ], [ %indvars.iv.next.i, %31 ]
  %.015.i = phi i32 [ 0, %.lr.ph.i ], [ %42, %31 ]
  %32 = getelementptr inbounds nuw i32, ptr %.val12.val.i, i64 %indvars.iv.i
  %33 = load i32, ptr %32, align 4, !tbaa !50
  %34 = sext i32 %33 to i64
  %35 = getelementptr inbounds %struct.Gia_Obj_t_, ptr %.val11.i, i64 %34
  %.val3.i.i = load i64, ptr %35, align 4
  %36 = trunc i64 %.val3.i.i to i32
  %37 = and i32 %36, 536870911
  %38 = sub nsw i32 %33, %37
  %39 = sext i32 %38 to i64
  %40 = getelementptr inbounds i32, ptr %.val10.i, i64 %39
  %41 = load i32, ptr %40, align 4, !tbaa !50
  %42 = tail call noundef i32 @llvm.smax.i32(i32 %.015.i, i32 %41)
  %indvars.iv.next.i = add nuw nsw i64 %indvars.iv.i, 1
  %exitcond.not.i = icmp eq i64 %indvars.iv.next.i, %wide.trip.count.i
  br i1 %exitcond.not.i, label %Sbd_ManDelay.exit, label %31, !llvm.loop !253

Sbd_ManDelay.exit:                                ; preds = %31, %._crit_edge
  %.0.lcssa.i = phi i32 [ 0, %._crit_edge ], [ %42, %31 ]
  %43 = tail call i32 (ptr, ...) @printf(ptr noundef nonnull dereferenceable(1) @.str.30, i32 noundef %.0.lcssa.i)
  ret void
}